target datalayout = "e-m:e-p270:32:32-p271:32:32-p272:64:64-i64:64-i128:128-f80:128-n8:16:32:64-S128"
target triple = "x86_64-pc-linux-gnu"

%struct.py_hashentry_t = type { ptr, ptr, ptr, i32, i32, ptr, ptr }
%struct._hashlibstate = type { ptr, ptr, ptr, ptr, ptr, ptr }

; Function Attrs: nounwind uwtable
define internal ptr @py_hashentry_table_new() #0 {
  %1 = alloca ptr, align 8
  %2 = alloca ptr, align 8
  %3 = alloca i32, align 4
  %4 = alloca ptr, align 8
  %5 = alloca ptr, align 8
  call void @llvm.lifetime.start.p0(i64 8, ptr %2) #9
  %6 = call ptr @_Py_hashtable_new_full(ptr noundef @py_hashentry_t_hash_name, ptr noundef @py_hashentry_t_compare_name, ptr noundef null, ptr noundef @py_hashentry_t_destroy_value, ptr noundef null)
  store ptr %6, ptr %2, align 8, !tbaa !94
  %7 = load ptr, ptr %2, align 8, !tbaa !94
  %8 = icmp eq ptr %7, null
  br i1 %8, label %9, label %10

9:                                                ; preds = %0
  store ptr null, ptr %1, align 8
  store i32 1, ptr %3, align 4
  br label %69

10:                                               ; preds = %0
  call void @llvm.lifetime.start.p0(i64 8, ptr %4) #9
  store ptr @py_hashes, ptr %4, align 8, !tbaa !3
  br label %11

11:                                               ; preds = %60, %10
  %12 = load ptr, ptr %4, align 8, !tbaa !3
  %13 = getelementptr inbounds nuw %struct.py_hashentry_t, ptr %12, i32 0, i32 0
  %14 = load ptr, ptr %13, align 8, !tbaa !23
  %15 = icmp ne ptr %14, null
  br i1 %15, label %17, label %16

16:                                               ; preds = %11
  store i32 2, ptr %3, align 4
  br label %63

17:                                               ; preds = %11
  call void @llvm.lifetime.start.p0(i64 8, ptr %5) #9
  %18 = call ptr @PyMem_Malloc(i64 noundef 48)
  store ptr %18, ptr %5, align 8, !tbaa !3
  %19 = load ptr, ptr %5, align 8, !tbaa !3
  %20 = icmp eq ptr %19, null
  br i1 %20, label %21, label %22

21:                                               ; preds = %17
  store i32 5, ptr %3, align 4
  br label %57

22:                                               ; preds = %17
  %23 = load ptr, ptr %5, align 8, !tbaa !3
  %24 = load ptr, ptr %4, align 8, !tbaa !3
  call void @llvm.memcpy.p0.p0.i64(ptr align 8 %23, ptr align 8 %24, i64 48, i1 false)
  %25 = load ptr, ptr %2, align 8, !tbaa !94
  %26 = load ptr, ptr %5, align 8, !tbaa !3
  %27 = getelementptr inbounds nuw %struct.py_hashentry_t, ptr %26, i32 0, i32 0
  %28 = load ptr, ptr %27, align 8, !tbaa !23
  %29 = load ptr, ptr %5, align 8, !tbaa !3
  %30 = call i32 @_Py_hashtable_set(ptr noundef %25, ptr noundef %28, ptr noundef %29)
  %31 = icmp slt i32 %30, 0
  br i1 %31, label %32, label %34

32:                                               ; preds = %22
  %33 = load ptr, ptr %5, align 8, !tbaa !3
  call void @PyMem_Free(ptr noundef %33)
  store i32 5, ptr %3, align 4
  br label %57

34:                                               ; preds = %22
  %35 = load ptr, ptr %5, align 8, !tbaa !3
  %36 = getelementptr inbounds nuw %struct.py_hashentry_t, ptr %35, i32 0, i32 4
  store i32 1, ptr %36, align 4, !tbaa !95
  %37 = load ptr, ptr %4, align 8, !tbaa !3
  %38 = getelementptr inbounds nuw %struct.py_hashentry_t, ptr %37, i32 0, i32 1
  %39 = load ptr, ptr %38, align 8, !tbaa !96
  %40 = icmp ne ptr %39, null
  br i1 %40, label %41, label %56

41:                                               ; preds = %34
  %42 = load ptr, ptr %2, align 8, !tbaa !94
  %43 = load ptr, ptr %5, align 8, !tbaa !3
  %44 = getelementptr inbounds nuw %struct.py_hashentry_t, ptr %43, i32 0, i32 1
  %45 = load ptr, ptr %44, align 8, !tbaa !96
  %46 = load ptr, ptr %5, align 8, !tbaa !3
  %47 = call i32 @_Py_hashtable_set(ptr noundef %42, ptr noundef %45, ptr noundef %46)
  %48 = icmp slt i32 %47, 0
  br i1 %48, label %49, label %51

49:                                               ; preds = %41
  %50 = load ptr, ptr %5, align 8, !tbaa !3
  call void @PyMem_Free(ptr noundef %50)
  store i32 5, ptr %3, align 4
  br label %57

51:                                               ; preds = %41
  %52 = load ptr, ptr %5, align 8, !tbaa !3
  %53 = getelementptr inbounds nuw %struct.py_hashentry_t, ptr %52, i32 0, i32 4
  %54 = load i32, ptr %53, align 4, !tbaa !95
  %55 = add i32 %54, 1
  store i32 %55, ptr %53, align 4, !tbaa !95
  br label %56

56:                                               ; preds = %51, %34
  store i32 0, ptr %3, align 4
  br label %57

57:                                               ; preds = %49, %32, %21, %56
  call void @llvm.lifetime.end.p0(i64 8, ptr %5) #9
  %58 = load i32, ptr %3, align 4
  switch i32 %58, label %63 [
    i32 0, label %59
  ]

59:                                               ; preds = %57
  br label %60

60:                                               ; preds = %59
  %61 = load ptr, ptr %4, align 8, !tbaa !3
  %62 = getelementptr %struct.py_hashentry_t, ptr %61, i32 1
  store ptr %62, ptr %4, align 8, !tbaa !3
  br label %11, !llvm.loop !97

63:                                               ; preds = %57, %16
  call void @llvm.lifetime.end.p0(i64 8, ptr %4) #9
  %64 = load i32, ptr %3, align 4
  switch i32 %64, label %69 [
    i32 2, label %65
    i32 5, label %67
  ]

65:                                               ; preds = %63
  %66 = load ptr, ptr %2, align 8, !tbaa !94
  store ptr %66, ptr %1, align 8
  store i32 1, ptr %3, align 4
  br label %69

67:                                               ; preds = %63
  %68 = load ptr, ptr %2, align 8, !tbaa !94
  call void @_Py_hashtable_destroy(ptr noundef %68)
  store ptr null, ptr %1, align 8
  store i32 1, ptr %3, align 4
  br label %69

69:                                               ; preds = %67, %65, %63, %9
  call void @llvm.lifetime.end.p0(i64 8, ptr %2) #9
  %70 = load ptr, ptr %1, align 8
  ret ptr %70
}

; Function Attrs: inlinehint nounwind uwtable
define internal ptr @get_hashlib_state(ptr noundef %0) #4 {
  %2 = alloca ptr, align 8
  %3 = alloca ptr, align 8
  store ptr %0, ptr %2, align 8, !tbaa !14
  call void @llvm.lifetime.start.p0(i64 8, ptr %3) #9
  %4 = load ptr, ptr %2, align 8, !tbaa !14
  %5 = call ptr @PyModule_GetState(ptr noundef %4)
  store ptr %5, ptr %3, align 8, !tbaa !3
  %6 = load ptr, ptr %3, align 8, !tbaa !3
  call void @llvm.lifetime.end.p0(i64 8, ptr %3) #9
  ret ptr %6
}

; Function Attrs: nounwind uwtable
define internal i32 @hashlib_init_hashtable(ptr noundef %0) #0 {
  %2 = alloca i32, align 4
  %3 = alloca ptr, align 8
  %4 = alloca ptr, align 8
  %5 = alloca i32, align 4
  store ptr %0, ptr %3, align 8, !tbaa !14
  call void @llvm.lifetime.start.p0(i64 8, ptr %4) #9
  %6 = load ptr, ptr %3, align 8, !tbaa !14
  %7 = call ptr @get_hashlib_state(ptr noundef %6)
  store ptr %7, ptr %4, align 8, !tbaa !3
  %8 = call ptr @py_hashentry_table_new()
  %9 = load ptr, ptr %4, align 8, !tbaa !3
  %10 = getelementptr inbounds nuw %struct._hashlibstate, ptr %9, i32 0, i32 5
  store ptr %8, ptr %10, align 8, !tbaa !66
  %11 = load ptr, ptr %4, align 8, !tbaa !3
  %12 = getelementptr inbounds nuw %struct._hashlibstate, ptr %11, i32 0, i32 5
  %13 = load ptr, ptr %12, align 8, !tbaa !66
  %14 = icmp eq ptr %13, null
  br i1 %14, label %15, label %17

15:                                               ; preds = %1
  %16 = call ptr @PyErr_NoMemory()
  store i32 -1, ptr %2, align 4
  store i32 1, ptr %5, align 4
  br label %18

17:                                               ; preds = %1
  store i32 0, ptr %2, align 4
  store i32 1, ptr %5, align 4
  br label %18

18:                                               ; preds = %17, %15
  call void @llvm.lifetime.end.p0(i64 8, ptr %4) #9
  %19 = load i32, ptr %2, align 4
  ret i32 %19
}