; Function Attrs: nounwind uwtable
define internal range(i32 -1, 1) i32 @hashlib_init_hashtable(ptr noundef %0) #0 {
  %2 = tail call ptr @PyModule_GetState(ptr noundef %0) #9
  %3 = tail call ptr @_Py_hashtable_new_full(ptr noundef nonnull @py_hashentry_t_hash_name, ptr noundef nonnull @py_hashentry_t_compare_name, ptr noundef null, ptr noundef nonnull @py_hashentry_t_destroy_value, ptr noundef null) #9
  %4 = icmp eq ptr %3, null
  br i1 %4, label %27, label %.preheader.i

.preheader.i:                                     ; preds = %1, %23
  %.02135.i = phi ptr [ %24, %23 ], [ @py_hashes, %1 ]
  %5 = tail call ptr @PyMem_Malloc(i64 noundef 48) #9
  %6 = icmp eq ptr %5, null
  br i1 %6, label %.loopexit32.i, label %7

7:                                                ; preds = %.preheader.i
  tail call void @llvm.memcpy.p0.p0.i64(ptr noundef nonnull align 8 dereferenceable(48) %5, ptr noundef nonnull align 8 dereferenceable(48) %.02135.i, i64 48, i1 false)
  %8 = load ptr, ptr %5, align 8, !tbaa !13
  %9 = tail call i32 @_Py_hashtable_set(ptr noundef nonnull %3, ptr noundef %8, ptr noundef nonnull %5) #9
  %10 = icmp slt i32 %9, 0
  br i1 %10, label %.loopexit32.sink.split.i, label %11

11:                                               ; preds = %7
  %12 = getelementptr inbounds nuw i8, ptr %5, i64 28
  store i32 1, ptr %12, align 4, !tbaa !68
  %13 = getelementptr inbounds nuw i8, ptr %.02135.i, i64 8
  %14 = load ptr, ptr %13, align 8, !tbaa !69
  %.not25.i = icmp eq ptr %14, null
  br i1 %.not25.i, label %23, label %15

15:                                               ; preds = %11
  %16 = getelementptr inbounds nuw i8, ptr %5, i64 8
  %17 = load ptr, ptr %16, align 8, !tbaa !69
  %18 = tail call i32 @_Py_hashtable_set(ptr noundef nonnull %3, ptr noundef %17, ptr noundef nonnull %5) #9
  %19 = icmp slt i32 %18, 0
  br i1 %19, label %.loopexit32.sink.split.i, label %20

20:                                               ; preds = %15
  %21 = load i32, ptr %12, align 4, !tbaa !68
  %22 = add i32 %21, 1
  store i32 %22, ptr %12, align 4, !tbaa !68
  br label %23

23:                                               ; preds = %20, %11
  %24 = getelementptr i8, ptr %.02135.i, i64 48
  %25 = load ptr, ptr %24, align 8, !tbaa !13
  %.not.i = icmp eq ptr %25, null
  br i1 %.not.i, label %py_hashentry_table_new.exit, label %.preheader.i, !llvm.loop !70

.loopexit32.sink.split.i:                         ; preds = %15, %7
  tail call void @PyMem_Free(ptr noundef nonnull %5) #9
  br label %.loopexit32.i

.loopexit32.i:                                    ; preds = %.preheader.i, %.loopexit32.sink.split.i
  tail call void @_Py_hashtable_destroy(ptr noundef nonnull %3) #9
  br label %27

py_hashentry_table_new.exit:                      ; preds = %23
  %26 = getelementptr inbounds nuw i8, ptr %2, i64 40
  store ptr %3, ptr %26, align 8, !tbaa !50
  br label %30

27:                                               ; preds = %.loopexit32.i, %1
  %28 = getelementptr inbounds nuw i8, ptr %2, i64 40
  store ptr null, ptr %28, align 8, !tbaa !50
  %29 = tail call ptr @PyErr_NoMemory() #9
  br label %30

30:                                               ; preds = %py_hashentry_table_new.exit, %27
  %.0 = phi i32 [ -1, %27 ], [ 0, %py_hashentry_table_new.exit ]
  ret i32 %.0
}